target datalayout = "e-m:e-p270:32:32-p271:32:32-p272:64:64-i64:64-i128:128-f80:128-n8:16:32:64-S128"
target triple = "x86_64-pc-linux-gnu"

%struct.anon.0 = type { i8, i8 }
%struct.rb_random_mt_t = type { %struct.rb_random_struct, %struct.MT }
%struct.rb_random_struct = type { i64 }
%struct.MT = type { [624 x i32], ptr, i32 }
%struct.rb_random_interface_t = type { i64, %struct.anon.0, i16, ptr, ptr, ptr, ptr, ptr }
%struct.RBasic = type { i64, i64 }
%struct.RString = type { %struct.RBasic, i64, %union.anon.16 }
%union.anon.16 = type { %struct.anon.17 }
%struct.anon.17 = type { ptr, %union.anon.18 }
%union.anon.18 = type { i64 }
%struct.anon.19 = type { [1 x i8] }

@default_rand_key = internal global ptr null, align 8
@random_mt_if = internal constant { i64, %struct.anon.0, i16, [4 x i8], ptr, ptr, ptr, ptr, ptr } { i64 128, %struct.anon.0 { i8 1, i8 0 }, i16 0, [4 x i8] zeroinitializer, ptr @rand_mt_init, ptr @rand_mt_init_int32, ptr @rand_mt_get_int32, ptr @rand_mt_get_bytes, ptr null }, align 8

; Function Attrs: inlinehint nounwind sspstrong willreturn memory(read) uwtable
define internal i64 @RB_FL_TEST_RAW(i64 noundef %0, i64 noundef %1) #6 {
  %3 = alloca i64, align 8
  %4 = alloca i64, align 8
  store i64 %0, ptr %3, align 8, !tbaa !26
  store i64 %1, ptr %4, align 8, !tbaa !26
  %5 = load i64, ptr %3, align 8, !tbaa !26
  %6 = inttoptr i64 %5 to ptr
  %7 = getelementptr inbounds nuw %struct.RBasic, ptr %6, i32 0, i32 0
  %8 = load i64, ptr %7, align 8, !tbaa !91
  %9 = load i64, ptr %4, align 8, !tbaa !26
  %10 = and i64 %8, %9
  ret i64 %10
}

; Function Attrs: inlinehint nounwind sspstrong willreturn memory(read) uwtable
define internal i64 @RSTRING_LEN(i64 noundef %0) #6 {
  %2 = alloca i64, align 8
  store i64 %0, ptr %2, align 8, !tbaa !26
  %3 = load i64, ptr %2, align 8, !tbaa !26
  %4 = inttoptr i64 %3 to ptr
  %5 = getelementptr inbounds nuw %struct.RString, ptr %4, i32 0, i32 1
  %6 = load i64, ptr %5, align 8, !tbaa !88
  ret i64 %6
}

; Function Attrs: inlinehint nounwind sspstrong willreturn memory(read) uwtable
define internal zeroext i1 @RB_FL_ANY_RAW(i64 noundef %0, i64 noundef %1) #6 {
  %3 = alloca i64, align 8
  %4 = alloca i64, align 8
  store i64 %0, ptr %3, align 8, !tbaa !26
  store i64 %1, ptr %4, align 8, !tbaa !26
  %5 = load i64, ptr %3, align 8, !tbaa !26
  %6 = load i64, ptr %4, align 8, !tbaa !26
  %7 = call i64 @RB_FL_TEST_RAW(i64 noundef %5, i64 noundef %6) #26
  %8 = icmp ne i64 %7, 0
  ret i1 %8
}

; Function Attrs: inlinehint nounwind sspstrong willreturn memory(read, argmem: readwrite) uwtable
define internal void @rbimpl_rstring_getmem(ptr dead_on_unwind noalias writable sret(%struct.RString) align 8 %0, i64 noundef %1) #19 {
  %3 = alloca i64, align 8
  store i64 %1, ptr %3, align 8, !tbaa !26
  %4 = load i64, ptr %3, align 8, !tbaa !26
  %5 = call zeroext i1 @RB_FL_ANY_RAW(i64 noundef %4, i64 noundef 8192) #26
  br i1 %5, label %6, label %9

6:                                                ; preds = %2
  %7 = load i64, ptr %3, align 8, !tbaa !26
  %8 = inttoptr i64 %7 to ptr
  call void @llvm.memcpy.p0.p0.i64(ptr align 8 %0, ptr align 8 %8, i64 40, i1 false), !tbaa.struct !92
  br label %20

9:                                                ; preds = %2
  %10 = load i64, ptr %3, align 8, !tbaa !26
  %11 = call i64 @RSTRING_LEN(i64 noundef %10) #26
  %12 = getelementptr inbounds nuw %struct.RString, ptr %0, i32 0, i32 1
  store i64 %11, ptr %12, align 8, !tbaa !88
  %13 = load i64, ptr %3, align 8, !tbaa !26
  %14 = inttoptr i64 %13 to ptr
  %15 = getelementptr inbounds nuw %struct.RString, ptr %14, i32 0, i32 2
  %16 = getelementptr inbounds nuw %struct.anon.19, ptr %15, i32 0, i32 0
  %17 = getelementptr inbounds [1 x i8], ptr %16, i64 0, i64 0
  %18 = getelementptr inbounds nuw %struct.RString, ptr %0, i32 0, i32 2
  %19 = getelementptr inbounds nuw %struct.anon.17, ptr %18, i32 0, i32 0
  store ptr %17, ptr %19, align 8, !tbaa !50
  br label %20

20:                                               ; preds = %9, %6
  ret void
}

; Function Attrs: inlinehint nounwind sspstrong willreturn memory(none) uwtable
define internal i64 @rbimpl_fix2long_by_idiv(i64 noundef %0) #8 {
  %2 = alloca i64, align 8
  %3 = alloca i64, align 8
  %4 = alloca i64, align 8
  %5 = alloca i64, align 8
  store i64 %0, ptr %2, align 8, !tbaa !26
  call void @llvm.lifetime.start.p0(i64 8, ptr %3) #24
  %6 = load i64, ptr %2, align 8, !tbaa !26
  %7 = sub i64 %6, 1
  store i64 %7, ptr %3, align 8, !tbaa !26
  call void @llvm.lifetime.start.p0(i64 8, ptr %4) #24
  %8 = load i64, ptr %3, align 8, !tbaa !26
  %9 = sdiv i64 %8, 2
  store i64 %9, ptr %4, align 8, !tbaa !26
  call void @llvm.lifetime.start.p0(i64 8, ptr %5) #24
  %10 = load i64, ptr %4, align 8, !tbaa !26
  store i64 %10, ptr %5, align 8, !tbaa !26
  %11 = load i64, ptr %5, align 8, !tbaa !26
  call void @llvm.lifetime.end.p0(i64 8, ptr %5) #24
  call void @llvm.lifetime.end.p0(i64 8, ptr %4) #24
  call void @llvm.lifetime.end.p0(i64 8, ptr %3) #24
  ret i64 %11
}

; Function Attrs: inlinehint nounwind sspstrong willreturn memory(none) uwtable
define internal i64 @rbimpl_fix2long_by_shift(i64 noundef %0) #8 {
  %2 = alloca i64, align 8
  %3 = alloca i64, align 8
  %4 = alloca i64, align 8
  %5 = alloca i64, align 8
  store i64 %0, ptr %2, align 8, !tbaa !26
  call void @llvm.lifetime.start.p0(i64 8, ptr %3) #24
  %6 = load i64, ptr %2, align 8, !tbaa !26
  store i64 %6, ptr %3, align 8, !tbaa !26
  call void @llvm.lifetime.start.p0(i64 8, ptr %4) #24
  %7 = load i64, ptr %3, align 8, !tbaa !26
  %8 = ashr i64 %7, 1
  store i64 %8, ptr %4, align 8, !tbaa !26
  call void @llvm.lifetime.start.p0(i64 8, ptr %5) #24
  %9 = load i64, ptr %4, align 8, !tbaa !26
  store i64 %9, ptr %5, align 8, !tbaa !26
  %10 = load i64, ptr %5, align 8, !tbaa !26
  call void @llvm.lifetime.end.p0(i64 8, ptr %5) #24
  call void @llvm.lifetime.end.p0(i64 8, ptr %4) #24
  call void @llvm.lifetime.end.p0(i64 8, ptr %3) #24
  ret i64 %10
}

; Function Attrs: inlinehint nounwind sspstrong willreturn memory(none) uwtable
define internal zeroext i1 @rbimpl_right_shift_is_arithmetic_p() #8 {
  ret i1 true
}

; Function Attrs: inlinehint nounwind sspstrong uwtable
define internal ptr @RSTRING_PTR(i64 noundef %0) #4 {
  %2 = alloca i64, align 8
  %3 = alloca ptr, align 8
  %4 = alloca %struct.RString, align 8
  store i64 %0, ptr %2, align 8, !tbaa !26
  call void @llvm.lifetime.start.p0(i64 8, ptr %3) #24
  %5 = load i64, ptr %2, align 8, !tbaa !26
  call void @rbimpl_rstring_getmem(ptr dead_on_unwind writable sret(%struct.RString) align 8 %4, i64 noundef %5) #32
  %6 = getelementptr inbounds nuw %struct.RString, ptr %4, i32 0, i32 2
  %7 = getelementptr inbounds nuw %struct.anon.17, ptr %6, i32 0, i32 0
  %8 = load ptr, ptr %7, align 8, !tbaa !50
  store ptr %8, ptr %3, align 8, !tbaa !29
  %9 = load ptr, ptr %3, align 8, !tbaa !29
  call void @llvm.lifetime.end.p0(i64 8, ptr %3) #24
  ret ptr %9
}

; Function Attrs: inlinehint nounwind sspstrong willreturn memory(none) uwtable
define internal i64 @rb_fix2long(i64 noundef %0) #8 {
  %2 = alloca i64, align 8
  %3 = alloca i64, align 8
  store i64 %0, ptr %3, align 8, !tbaa !26
  %4 = call zeroext i1 @rbimpl_right_shift_is_arithmetic_p() #28
  br i1 %4, label %5, label %8

5:                                                ; preds = %1
  %6 = load i64, ptr %3, align 8, !tbaa !26
  %7 = call i64 @rbimpl_fix2long_by_shift(i64 noundef %6) #28
  store i64 %7, ptr %2, align 8
  br label %11

8:                                                ; preds = %1
  %9 = load i64, ptr %3, align 8, !tbaa !26
  %10 = call i64 @rbimpl_fix2long_by_idiv(i64 noundef %9) #28
  store i64 %10, ptr %2, align 8
  br label %11

11:                                               ; preds = %8, %5
  %12 = load i64, ptr %2, align 8
  ret i64 %12
}

; Function Attrs: inlinehint nounwind sspstrong willreturn memory(none) uwtable
define internal zeroext i1 @RB_FIXNUM_P(i64 noundef %0) #8 {
  %2 = alloca i64, align 8
  store i64 %0, ptr %2, align 8, !tbaa !26
  %3 = load i64, ptr %2, align 8, !tbaa !26
  %4 = and i64 %3, 1
  %5 = icmp ne i64 %4, 0
  ret i1 %5
}

; Function Attrs: nounwind sspstrong uwtable
define internal ptr @rand_mt_start(ptr noundef %0) #0 {
  %2 = alloca ptr, align 8
  store ptr %0, ptr %2, align 8, !tbaa !20
  %3 = load ptr, ptr %2, align 8, !tbaa !20
  %4 = getelementptr inbounds nuw %struct.rb_random_mt_t, ptr %3, i32 0, i32 1
  %5 = getelementptr inbounds nuw %struct.MT, ptr %4, i32 0, i32 1
  %6 = load ptr, ptr %5, align 8, !tbaa !70
  %7 = icmp ne ptr %6, null
  br i1 %7, label %16, label %8

8:                                                ; preds = %1
  %9 = load ptr, ptr %2, align 8, !tbaa !20
  %10 = getelementptr inbounds nuw %struct.rb_random_mt_t, ptr %9, i32 0, i32 0
  %11 = call i64 @random_seed(i64 noundef 36)
  %12 = call i64 @rand_init(ptr noundef @random_mt_if, ptr noundef %10, i64 noundef %11)
  %13 = load ptr, ptr %2, align 8, !tbaa !20
  %14 = getelementptr inbounds nuw %struct.rb_random_mt_t, ptr %13, i32 0, i32 0
  %15 = getelementptr inbounds nuw %struct.rb_random_struct, ptr %14, i32 0, i32 0
  store i64 %12, ptr %15, align 8, !tbaa !72
  br label %16

16:                                               ; preds = %8, %1
  %17 = load ptr, ptr %2, align 8, !tbaa !20
  ret ptr %17
}

; Function Attrs: nounwind sspstrong uwtable
define internal i64 @rand_bytes(ptr noundef %0, ptr noundef %1, i64 noundef %2) #0 {
  %4 = alloca ptr, align 8
  %5 = alloca ptr, align 8
  %6 = alloca i64, align 8
  %7 = alloca i64, align 8
  %8 = alloca ptr, align 8
  store ptr %0, ptr %4, align 8, !tbaa !20
  store ptr %1, ptr %5, align 8, !tbaa !24
  store i64 %2, ptr %6, align 8, !tbaa !26
  call void @llvm.lifetime.start.p0(i64 8, ptr %7) #24
  call void @llvm.lifetime.start.p0(i64 8, ptr %8) #24
  %9 = load i64, ptr %6, align 8, !tbaa !26
  %10 = call i1 @llvm.is.constant.i64(i64 %9)
  %11 = select i1 %10, ptr @rb_str_new_static, ptr @rb_str_new
  %12 = load i64, ptr %6, align 8, !tbaa !26
  %13 = call i64 %11(ptr noundef null, i64 noundef %12)
  store i64 %13, ptr %7, align 8, !tbaa !26
  %14 = load i64, ptr %7, align 8, !tbaa !26
  %15 = call ptr @RSTRING_PTR(i64 noundef %14)
  store ptr %15, ptr %8, align 8, !tbaa !29
  %16 = load ptr, ptr %4, align 8, !tbaa !20
  %17 = getelementptr inbounds nuw %struct.rb_random_interface_t, ptr %16, i32 0, i32 6
  %18 = load ptr, ptr %17, align 8, !tbaa !54
  %19 = load ptr, ptr %5, align 8, !tbaa !24
  %20 = load ptr, ptr %8, align 8, !tbaa !29
  %21 = load i64, ptr %6, align 8, !tbaa !26
  call void %18(ptr noundef %19, ptr noundef %20, i64 noundef %21)
  %22 = load i64, ptr %7, align 8, !tbaa !26
  call void @llvm.lifetime.end.p0(i64 8, ptr %8) #24
  call void @llvm.lifetime.end.p0(i64 8, ptr %7) #24
  ret i64 %22
}

; Function Attrs: inlinehint nounwind sspstrong uwtable
define internal i64 @rb_num2long_inline(i64 noundef %0) #4 {
  %2 = alloca i64, align 8
  %3 = alloca i64, align 8
  store i64 %0, ptr %3, align 8, !tbaa !26
  %4 = load i64, ptr %3, align 8, !tbaa !26
  %5 = call zeroext i1 @RB_FIXNUM_P(i64 noundef %4) #28
  br i1 %5, label %6, label %9

6:                                                ; preds = %1
  %7 = load i64, ptr %3, align 8, !tbaa !26
  %8 = call i64 @rb_fix2long(i64 noundef %7) #28
  store i64 %8, ptr %2, align 8
  br label %12

9:                                                ; preds = %1
  %10 = load i64, ptr %3, align 8, !tbaa !26
  %11 = call i64 @rb_num2long(i64 noundef %10)
  store i64 %11, ptr %2, align 8
  br label %12

12:                                               ; preds = %9, %6
  %13 = load i64, ptr %2, align 8
  ret i64 %13
}

; Function Attrs: nounwind sspstrong uwtable
define internal ptr @rand_start(ptr noundef %0) #0 {
  %2 = alloca ptr, align 8
  store ptr %0, ptr %2, align 8, !tbaa !20
  %3 = load ptr, ptr %2, align 8, !tbaa !20
  %4 = call ptr @rand_mt_start(ptr noundef %3)
  %5 = getelementptr inbounds nuw %struct.rb_random_mt_t, ptr %4, i32 0, i32 0
  ret ptr %5
}

; Function Attrs: nounwind sspstrong uwtable
define internal ptr @default_rand() #0 {
  %1 = alloca ptr, align 8
  call void @llvm.lifetime.start.p0(i64 8, ptr %1) #24
  %2 = load ptr, ptr @default_rand_key, align 8, !tbaa !7
  %3 = call ptr @rb_ractor_local_storage_ptr(ptr noundef %2)
  store ptr %3, ptr %1, align 8, !tbaa !20
  %4 = icmp eq ptr %3, null
  br i1 %4, label %5, label %9

5:                                                ; preds = %0
  %6 = call noalias nonnull ptr @ruby_xcalloc(i64 noundef 1, i64 noundef 2520) #29
  store ptr %6, ptr %1, align 8, !tbaa !20
  %7 = load ptr, ptr @default_rand_key, align 8, !tbaa !7
  %8 = load ptr, ptr %1, align 8, !tbaa !20
  call void @rb_ractor_local_storage_ptr_set(ptr noundef %7, ptr noundef %8)
  br label %9

9:                                                ; preds = %5, %0
  %10 = load ptr, ptr %1, align 8, !tbaa !20
  call void @llvm.lifetime.end.p0(i64 8, ptr %1) #24
  ret ptr %10
}

; Function Attrs: nounwind sspstrong uwtable
define internal i64 @random_s_bytes(i64 noundef %0, i64 noundef %1) #0 {
  %3 = alloca i64, align 8
  %4 = alloca i64, align 8
  %5 = alloca ptr, align 8
  store i64 %0, ptr %3, align 8, !tbaa !26
  store i64 %1, ptr %4, align 8, !tbaa !26
  call void @llvm.lifetime.start.p0(i64 8, ptr %5) #24
  %6 = call ptr @default_rand()
  %7 = call ptr @rand_start(ptr noundef %6)
  store ptr %7, ptr %5, align 8, !tbaa !24
  %8 = load ptr, ptr %5, align 8, !tbaa !24
  %9 = load i64, ptr %4, align 8, !tbaa !26
  %10 = call i64 @rb_to_int(i64 noundef %9)
  %11 = call i64 @rb_num2long_inline(i64 noundef %10)
  %12 = call i64 @rand_bytes(ptr noundef @random_mt_if, ptr noundef %8, i64 noundef %11)
  call void @llvm.lifetime.end.p0(i64 8, ptr %5) #24
  ret i64 %12
}