; Function Attrs: nounwind sspstrong uwtable
define internal i64 @random_s_bytes(i64 %0, i64 noundef %1) #0 {
  %3 = load ptr, ptr @default_rand_key, align 8, !tbaa !7
  %4 = tail call ptr @rb_ractor_local_storage_ptr(ptr noundef %3) #23
  %5 = icmp eq ptr %4, null
  br i1 %5, label %6, label %default_rand.exit

6:                                                ; preds = %2
  %7 = tail call noalias nonnull dereferenceable(2520) ptr @ruby_xcalloc(i64 noundef 1, i64 noundef 2520) #24
  %8 = load ptr, ptr @default_rand_key, align 8, !tbaa !7
  tail call void @rb_ractor_local_storage_ptr_set(ptr noundef %8, ptr noundef nonnull %7) #23
  br label %default_rand.exit

default_rand.exit:                                ; preds = %2, %6
  %.0.i = phi ptr [ %7, %6 ], [ %4, %2 ]
  %9 = getelementptr inbounds nuw i8, ptr %.0.i, i64 2504
  %10 = load ptr, ptr %9, align 8, !tbaa !12
  %.not.i.i = icmp eq ptr %10, null
  br i1 %.not.i.i, label %11, label %rand_start.exit

11:                                               ; preds = %default_rand.exit
  %12 = tail call i64 @random_seed(i64 poison)
  %13 = tail call fastcc i64 @rand_init(ptr noundef nonnull @random_mt_if, ptr noundef nonnull %.0.i, i64 noundef %12)
  store i64 %12, ptr %.0.i, align 8, !tbaa !19
  br label %rand_start.exit

rand_start.exit:                                  ; preds = %default_rand.exit, %11
  %14 = tail call i64 @rb_to_int(i64 noundef %1) #23
  %15 = and i64 %14, 1
  %.not.i = icmp eq i64 %15, 0
  br i1 %.not.i, label %18, label %16

16:                                               ; preds = %rand_start.exit
  %17 = ashr i64 %14, 1
  br label %rb_num2long_inline.exit

18:                                               ; preds = %rand_start.exit
  %19 = tail call i64 @rb_num2long(i64 noundef %14) #23
  br label %rb_num2long_inline.exit

rb_num2long_inline.exit:                          ; preds = %16, %18
  %.0.i1 = phi i64 [ %17, %16 ], [ %19, %18 ]
  %20 = tail call i64 @rb_str_new(ptr noundef null, i64 noundef %.0.i1) #23, !callees !57
  %21 = inttoptr i64 %20 to ptr
  %22 = load i64, ptr %21, align 8, !tbaa !48, !noalias !82
  %23 = and i64 %22, 8192
  %.not.i.i.i = icmp eq i64 %23, 0
  %24 = getelementptr inbounds nuw i8, ptr %21, i64 24
  br i1 %.not.i.i.i, label %rand_bytes.exit, label %25

25:                                               ; preds = %rb_num2long_inline.exit
  %.sroa.2.0.copyload.i.i = load ptr, ptr %24, align 8
  br label %rand_bytes.exit

rand_bytes.exit:                                  ; preds = %rb_num2long_inline.exit, %25
  %.sroa.2.0.i.i = phi ptr [ %.sroa.2.0.copyload.i.i, %25 ], [ %24, %rb_num2long_inline.exit ]
  %26 = icmp ugt i64 %.0.i1, 3
  br i1 %26, label %.lr.ph.i.preheader.i, label %._crit_edge.i.i

.lr.ph.i.preheader.i:                             ; preds = %rand_bytes.exit
  %27 = getelementptr inbounds nuw i8, ptr %.0.i, i64 8
  br label %.lr.ph.i.i

.lr.ph.i.i:                                       ; preds = %34, %.lr.ph.i.preheader.i
  %.01623.i.i = phi ptr [ %31, %34 ], [ %.sroa.2.0.i.i, %.lr.ph.i.preheader.i ]
  %.01822.i.i = phi i64 [ %35, %34 ], [ %.0.i1, %.lr.ph.i.preheader.i ]
  %28 = tail call fastcc i32 @genrand_int32(ptr noundef nonnull %27)
  br label %29

29:                                               ; preds = %29, %.lr.ph.i.i
  %.117.i.i = phi ptr [ %.01623.i.i, %.lr.ph.i.i ], [ %31, %29 ]
  %.015.i.i = phi i32 [ %28, %.lr.ph.i.i ], [ %32, %29 ]
  %.0.i.i = phi i32 [ 4, %.lr.ph.i.i ], [ %33, %29 ]
  %30 = trunc i32 %.015.i.i to i8
  %31 = getelementptr i8, ptr %.117.i.i, i64 1
  store i8 %30, ptr %.117.i.i, align 1, !tbaa !53
  %32 = lshr i32 %.015.i.i, 8
  %33 = add nsw i32 %.0.i.i, -1
  %.not21.i.i = icmp eq i32 %33, 0
  br i1 %.not21.i.i, label %34, label %29, !llvm.loop !54

34:                                               ; preds = %29
  %35 = add i64 %.01822.i.i, -4
  %36 = icmp ugt i64 %35, 3
  br i1 %36, label %.lr.ph.i.i, label %._crit_edge.i.i, !llvm.loop !55

._crit_edge.i.i:                                  ; preds = %34, %rand_bytes.exit
  %.018.lcssa.i.i = phi i64 [ %.0.i1, %rand_bytes.exit ], [ %35, %34 ]
  %.016.lcssa.i.i = phi ptr [ %.sroa.2.0.i.i, %rand_bytes.exit ], [ %31, %34 ]
  %.not.i.i2 = icmp eq i64 %.018.lcssa.i.i, 0
  br i1 %.not.i.i2, label %rand_mt_get_bytes.exit, label %37

37:                                               ; preds = %._crit_edge.i.i
  %38 = getelementptr inbounds nuw i8, ptr %.0.i, i64 8
  %39 = tail call fastcc i32 @genrand_int32(ptr noundef nonnull %38)
  br label %40

40:                                               ; preds = %40, %37
  %.119.i.i = phi i64 [ %.018.lcssa.i.i, %37 ], [ %44, %40 ]
  %.2.i.i = phi ptr [ %.016.lcssa.i.i, %37 ], [ %42, %40 ]
  %.1.i.i = phi i32 [ %39, %37 ], [ %43, %40 ]
  %41 = trunc i32 %.1.i.i to i8
  %42 = getelementptr i8, ptr %.2.i.i, i64 1
  store i8 %41, ptr %.2.i.i, align 1, !tbaa !53
  %43 = lshr i32 %.1.i.i, 8
  %44 = add i64 %.119.i.i, -1
  %.not20.i.i = icmp eq i64 %44, 0
  br i1 %.not20.i.i, label %rand_mt_get_bytes.exit, label %40, !llvm.loop !56

rand_mt_get_bytes.exit:                           ; preds = %40, %._crit_edge.i.i
  ret i64 %20
}